; Function Attrs: mustprogress nofree norecurse nosync nounwind willreturn memory(read, argmem: readwrite, inaccessiblemem: none) uwtable
define dso_local void @RelationInitLockInfo(ptr noundef captures(none) initializes((76, 84)) %0) local_unnamed_addr #0 {
  %2 = getelementptr inbounds nuw i8, ptr %0, i64 72
  %3 = load i32, ptr %2, align 8
  %4 = getelementptr inbounds nuw i8, ptr %0, i64 76
  store i32 %3, ptr %4, align 4
  %5 = getelementptr inbounds nuw i8, ptr %0, i64 56
  %6 = load ptr, ptr %5, align 8
  %7 = getelementptr inbounds nuw i8, ptr %6, i64 113
  %8 = load i8, ptr %7, align 1, !range !4, !noundef !5
  %9 = trunc nuw i8 %8 to i1
  %10 = load i32, ptr @MyDatabaseId, align 4
  %spec.select = select i1 %9, i32 0, i32 %10
  %11 = getelementptr inbounds nuw i8, ptr %0, i64 80
  store i32 %spec.select, ptr %11, align 4
  ret void
}